; Function Attrs: nounwind uwtable
define dso_local range(i32 -1, 1) i32 @zend_try_assign_typed_ref(ptr noundef %0, ptr noundef %1) local_unnamed_addr #2 {
  %3 = load ptr, ptr getelementptr inbounds nuw (i8, ptr @executor_globals, i64 512), align 8, !tbaa !4
  %4 = getelementptr inbounds nuw i8, ptr %3, i64 48
  %5 = load ptr, ptr %4, align 8, !tbaa !71
  %.not = icmp eq ptr %5, null
  br i1 %.not, label %13, label %6

6:                                                ; preds = %2
  %7 = getelementptr inbounds nuw i8, ptr %5, i64 24
  %8 = load ptr, ptr %7, align 8, !tbaa !69
  %.not3 = icmp eq ptr %8, null
  br i1 %.not3, label %13, label %9

9:                                                ; preds = %6
  %10 = getelementptr inbounds nuw i8, ptr %8, i64 4
  %11 = load i32, ptr %10, align 4, !tbaa !42
  %12 = icmp slt i32 %11, 0
  br label %13

13:                                               ; preds = %9, %6, %2
  %14 = phi i1 [ false, %6 ], [ false, %2 ], [ %12, %9 ]
  %15 = tail call zeroext i1 @zend_verify_ref_assignable_zval(ptr noundef %0, ptr noundef %1, i1 noundef zeroext %14) #34
  br i1 %15, label %17, label %16, !prof !45

16:                                               ; preds = %13
  tail call void @zval_ptr_dtor(ptr noundef %1) #34
  br label %zend_try_assign_typed_ref_ex.exit

17:                                               ; preds = %13
  %18 = getelementptr inbounds nuw i8, ptr %0, i64 8
  %19 = getelementptr inbounds nuw i8, ptr %0, i64 16
  %20 = getelementptr inbounds nuw i8, ptr %0, i64 17
  %21 = load i8, ptr %20, align 1, !tbaa !42
  %.not.i.i = icmp eq i8 %21, 0
  br i1 %.not.i.i, label %39, label %22

22:                                               ; preds = %17
  %23 = load ptr, ptr %18, align 8, !tbaa !42
  %24 = load ptr, ptr %1, align 8, !tbaa !42
  %25 = getelementptr inbounds nuw i8, ptr %1, i64 8
  %26 = load i32, ptr %25, align 8, !tbaa !42
  store ptr %24, ptr %18, align 8, !tbaa !42
  store i32 %26, ptr %19, align 8, !tbaa !42
  %27 = load i32, ptr %23, align 4, !tbaa !43
  %28 = icmp ne i32 %27, 0
  tail call void @llvm.assume(i1 %28)
  %29 = add i32 %27, -1
  store i32 %29, ptr %23, align 4, !tbaa !43
  %30 = icmp eq i32 %29, 0
  br i1 %30, label %31, label %32

31:                                               ; preds = %22
  tail call void @rc_dtor_func(ptr noundef nonnull %23) #34
  br label %zend_try_assign_typed_ref_ex.exit

32:                                               ; preds = %22
  %33 = getelementptr inbounds nuw i8, ptr %23, i64 4
  %34 = load i32, ptr %33, align 4, !tbaa !42
  %35 = icmp ne i32 %34, 26
  tail call void @llvm.assume(i1 %35)
  %36 = and i32 %34, -1008
  %37 = icmp eq i32 %36, 0
  br i1 %37, label %38, label %zend_try_assign_typed_ref_ex.exit, !prof !46

38:                                               ; preds = %32
  tail call void @gc_possible_root(ptr noundef nonnull %23) #34
  br label %zend_try_assign_typed_ref_ex.exit

39:                                               ; preds = %17
  %40 = load ptr, ptr %1, align 8, !tbaa !42
  %41 = getelementptr inbounds nuw i8, ptr %1, i64 8
  %42 = load i32, ptr %41, align 8, !tbaa !42
  store ptr %40, ptr %18, align 8, !tbaa !42
  store i32 %42, ptr %19, align 8, !tbaa !42
  br label %zend_try_assign_typed_ref_ex.exit

zend_try_assign_typed_ref_ex.exit:                ; preds = %16, %31, %32, %38, %39
  %.0.i = phi i32 [ -1, %16 ], [ 0, %38 ], [ 0, %32 ], [ 0, %31 ], [ 0, %39 ]
  ret i32 %.0.i
}